target datalayout = "e-m:e-p270:32:32-p271:32:32-p272:64:64-i64:64-i128:128-f80:128-n8:16:32:64-S128"
target triple = "x86_64-pc-linux-gnu"

%"class.llvm::StringRef" = type { ptr, i64 }

@.str = private unnamed_addr constant [8 x i8] c"unknown\00", align 1
@.str.98 = private unnamed_addr constant [4 x i8] c"aix\00", align 1
@.str.99 = private unnamed_addr constant [7 x i8] c"amdhsa\00", align 1
@.str.100 = private unnamed_addr constant [7 x i8] c"amdpal\00", align 1
@.str.101 = private unnamed_addr constant [9 x i8] c"bridgeos\00", align 1
@.str.102 = private unnamed_addr constant [5 x i8] c"cuda\00", align 1
@.str.103 = private unnamed_addr constant [7 x i8] c"darwin\00", align 1
@.str.104 = private unnamed_addr constant [10 x i8] c"dragonfly\00", align 1
@.str.105 = private unnamed_addr constant [10 x i8] c"driverkit\00", align 1
@.str.106 = private unnamed_addr constant [9 x i8] c"elfiamcu\00", align 1
@.str.107 = private unnamed_addr constant [11 x i8] c"emscripten\00", align 1
@.str.108 = private unnamed_addr constant [8 x i8] c"freebsd\00", align 1
@.str.109 = private unnamed_addr constant [8 x i8] c"fuchsia\00", align 1
@.str.110 = private unnamed_addr constant [6 x i8] c"haiku\00", align 1
@.str.111 = private unnamed_addr constant [7 x i8] c"hermit\00", align 1
@.str.112 = private unnamed_addr constant [5 x i8] c"hurd\00", align 1
@.str.113 = private unnamed_addr constant [4 x i8] c"ios\00", align 1
@.str.114 = private unnamed_addr constant [9 x i8] c"kfreebsd\00", align 1
@.str.115 = private unnamed_addr constant [6 x i8] c"linux\00", align 1
@.str.116 = private unnamed_addr constant [4 x i8] c"lv2\00", align 1
@.str.117 = private unnamed_addr constant [7 x i8] c"macosx\00", align 1
@.str.118 = private unnamed_addr constant [7 x i8] c"mesa3d\00", align 1
@.str.119 = private unnamed_addr constant [5 x i8] c"nvcl\00", align 1
@.str.120 = private unnamed_addr constant [5 x i8] c"nacl\00", align 1
@.str.121 = private unnamed_addr constant [7 x i8] c"netbsd\00", align 1
@.str.122 = private unnamed_addr constant [8 x i8] c"openbsd\00", align 1
@.str.123 = private unnamed_addr constant [4 x i8] c"ps4\00", align 1
@.str.124 = private unnamed_addr constant [4 x i8] c"ps5\00", align 1
@.str.125 = private unnamed_addr constant [6 x i8] c"rtems\00", align 1
@.str.126 = private unnamed_addr constant [8 x i8] c"solaris\00", align 1
@.str.127 = private unnamed_addr constant [9 x i8] c"serenity\00", align 1
@.str.128 = private unnamed_addr constant [5 x i8] c"tvos\00", align 1
@.str.129 = private unnamed_addr constant [5 x i8] c"uefi\00", align 1
@.str.130 = private unnamed_addr constant [5 x i8] c"wasi\00", align 1
@.str.131 = private unnamed_addr constant [8 x i8] c"watchos\00", align 1
@.str.132 = private unnamed_addr constant [8 x i8] c"windows\00", align 1
@.str.133 = private unnamed_addr constant [4 x i8] c"zos\00", align 1
@.str.134 = private unnamed_addr constant [12 x i8] c"shadermodel\00", align 1
@.str.135 = private unnamed_addr constant [7 x i8] c"liteos\00", align 1
@.str.136 = private unnamed_addr constant [5 x i8] c"xros\00", align 1
@.str.137 = private unnamed_addr constant [7 x i8] c"vulkan\00", align 1

; Function Attrs: mustprogress nounwind uwtable
define linkonce_odr hidden noundef i64 @_ZNSt11char_traitsIcE6lengthEPKc(ptr noundef %0) #0 comdat align 2 {
  %2 = alloca ptr, align 8
  store ptr %0, ptr %2, align 8
  %3 = load ptr, ptr %2, align 8
  %4 = call i64 @strlen(ptr noundef %3) #7
  ret i64 %4
}

; Function Attrs: mustprogress nounwind uwtable
define linkonce_odr hidden void @_ZN4llvm9StringRefC2EPKc(ptr noundef nonnull align 8 dereferenceable(16) %0, ptr noundef %1) unnamed_addr #0 comdat align 2 {
  %3 = alloca ptr, align 8
  %4 = alloca ptr, align 8
  store ptr %0, ptr %3, align 8
  store ptr %1, ptr %4, align 8
  %5 = load ptr, ptr %3, align 8
  %6 = getelementptr inbounds nuw %"class.llvm::StringRef", ptr %5, i32 0, i32 0
  %7 = load ptr, ptr %4, align 8
  store ptr %7, ptr %6, align 8
  %8 = getelementptr inbounds nuw %"class.llvm::StringRef", ptr %5, i32 0, i32 1
  %9 = load ptr, ptr %4, align 8
  %10 = icmp ne ptr %9, null
  br i1 %10, label %11, label %14

11:                                               ; preds = %2
  %12 = load ptr, ptr %4, align 8
  %13 = call noundef i64 @_ZNSt11char_traitsIcE6lengthEPKc(ptr noundef %12)
  br label %15

14:                                               ; preds = %2
  br label %15

15:                                               ; preds = %14, %11
  %16 = phi i64 [ %13, %11 ], [ 0, %14 ]
  store i64 %16, ptr %8, align 8
  ret void
}

; Function Attrs: mustprogress nounwind uwtable
define dso_local { ptr, i64 } @_ZN4llvm6Triple13getOSTypeNameENS0_6OSTypeE(i32 noundef %0) #0 align 2 {
  %2 = alloca %"class.llvm::StringRef", align 8
  %3 = alloca i32, align 4
  store i32 %0, ptr %3, align 4
  %4 = load i32, ptr %3, align 4
  switch i32 %4, label %46 [
    i32 0, label %5
    i32 19, label %6
    i32 22, label %7
    i32 32, label %8
    i32 28, label %9
    i32 20, label %10
    i32 1, label %11
    i32 2, label %12
    i32 29, label %13
    i32 25, label %14
    i32 36, label %15
    i32 3, label %16
    i32 4, label %17
    i32 16, label %18
    i32 33, label %19
    i32 34, label %20
    i32 5, label %21
    i32 6, label %22
    i32 7, label %23
    i32 8, label %24
    i32 9, label %25
    i32 31, label %26
    i32 21, label %27
    i32 18, label %28
    i32 10, label %29
    i32 11, label %30
    i32 23, label %31
    i32 24, label %32
    i32 17, label %33
    i32 12, label %34
    i32 39, label %35
    i32 26, label %36
    i32 13, label %37
    i32 35, label %38
    i32 27, label %39
    i32 14, label %40
    i32 15, label %41
    i32 37, label %42
    i32 38, label %43
    i32 30, label %44
    i32 40, label %45
  ]

5:                                                ; preds = %1
  call void @_ZN4llvm9StringRefC2EPKc(ptr noundef nonnull align 8 dereferenceable(16) %2, ptr noundef @.str)
  br label %47

6:                                                ; preds = %1
  call void @_ZN4llvm9StringRefC2EPKc(ptr noundef nonnull align 8 dereferenceable(16) %2, ptr noundef @.str.98)
  br label %47

7:                                                ; preds = %1
  call void @_ZN4llvm9StringRefC2EPKc(ptr noundef nonnull align 8 dereferenceable(16) %2, ptr noundef @.str.99)
  br label %47

8:                                                ; preds = %1
  call void @_ZN4llvm9StringRefC2EPKc(ptr noundef nonnull align 8 dereferenceable(16) %2, ptr noundef @.str.100)
  br label %47

9:                                                ; preds = %1
  call void @_ZN4llvm9StringRefC2EPKc(ptr noundef nonnull align 8 dereferenceable(16) %2, ptr noundef @.str.101)
  br label %47

10:                                               ; preds = %1
  call void @_ZN4llvm9StringRefC2EPKc(ptr noundef nonnull align 8 dereferenceable(16) %2, ptr noundef @.str.102)
  br label %47

11:                                               ; preds = %1
  call void @_ZN4llvm9StringRefC2EPKc(ptr noundef nonnull align 8 dereferenceable(16) %2, ptr noundef @.str.103)
  br label %47

12:                                               ; preds = %1
  call void @_ZN4llvm9StringRefC2EPKc(ptr noundef nonnull align 8 dereferenceable(16) %2, ptr noundef @.str.104)
  br label %47

13:                                               ; preds = %1
  call void @_ZN4llvm9StringRefC2EPKc(ptr noundef nonnull align 8 dereferenceable(16) %2, ptr noundef @.str.105)
  br label %47

14:                                               ; preds = %1
  call void @_ZN4llvm9StringRefC2EPKc(ptr noundef nonnull align 8 dereferenceable(16) %2, ptr noundef @.str.106)
  br label %47

15:                                               ; preds = %1
  call void @_ZN4llvm9StringRefC2EPKc(ptr noundef nonnull align 8 dereferenceable(16) %2, ptr noundef @.str.107)
  br label %47

16:                                               ; preds = %1
  call void @_ZN4llvm9StringRefC2EPKc(ptr noundef nonnull align 8 dereferenceable(16) %2, ptr noundef @.str.108)
  br label %47

17:                                               ; preds = %1
  call void @_ZN4llvm9StringRefC2EPKc(ptr noundef nonnull align 8 dereferenceable(16) %2, ptr noundef @.str.109)
  br label %47

18:                                               ; preds = %1
  call void @_ZN4llvm9StringRefC2EPKc(ptr noundef nonnull align 8 dereferenceable(16) %2, ptr noundef @.str.110)
  br label %47

19:                                               ; preds = %1
  call void @_ZN4llvm9StringRefC2EPKc(ptr noundef nonnull align 8 dereferenceable(16) %2, ptr noundef @.str.111)
  br label %47

20:                                               ; preds = %1
  call void @_ZN4llvm9StringRefC2EPKc(ptr noundef nonnull align 8 dereferenceable(16) %2, ptr noundef @.str.112)
  br label %47

21:                                               ; preds = %1
  call void @_ZN4llvm9StringRefC2EPKc(ptr noundef nonnull align 8 dereferenceable(16) %2, ptr noundef @.str.113)
  br label %47

22:                                               ; preds = %1
  call void @_ZN4llvm9StringRefC2EPKc(ptr noundef nonnull align 8 dereferenceable(16) %2, ptr noundef @.str.114)
  br label %47

23:                                               ; preds = %1
  call void @_ZN4llvm9StringRefC2EPKc(ptr noundef nonnull align 8 dereferenceable(16) %2, ptr noundef @.str.115)
  br label %47

24:                                               ; preds = %1
  call void @_ZN4llvm9StringRefC2EPKc(ptr noundef nonnull align 8 dereferenceable(16) %2, ptr noundef @.str.116)
  br label %47

25:                                               ; preds = %1
  call void @_ZN4llvm9StringRefC2EPKc(ptr noundef nonnull align 8 dereferenceable(16) %2, ptr noundef @.str.117)
  br label %47

26:                                               ; preds = %1
  call void @_ZN4llvm9StringRefC2EPKc(ptr noundef nonnull align 8 dereferenceable(16) %2, ptr noundef @.str.118)
  br label %47

27:                                               ; preds = %1
  call void @_ZN4llvm9StringRefC2EPKc(ptr noundef nonnull align 8 dereferenceable(16) %2, ptr noundef @.str.119)
  br label %47

28:                                               ; preds = %1
  call void @_ZN4llvm9StringRefC2EPKc(ptr noundef nonnull align 8 dereferenceable(16) %2, ptr noundef @.str.120)
  br label %47

29:                                               ; preds = %1
  call void @_ZN4llvm9StringRefC2EPKc(ptr noundef nonnull align 8 dereferenceable(16) %2, ptr noundef @.str.121)
  br label %47

30:                                               ; preds = %1
  call void @_ZN4llvm9StringRefC2EPKc(ptr noundef nonnull align 8 dereferenceable(16) %2, ptr noundef @.str.122)
  br label %47

31:                                               ; preds = %1
  call void @_ZN4llvm9StringRefC2EPKc(ptr noundef nonnull align 8 dereferenceable(16) %2, ptr noundef @.str.123)
  br label %47

32:                                               ; preds = %1
  call void @_ZN4llvm9StringRefC2EPKc(ptr noundef nonnull align 8 dereferenceable(16) %2, ptr noundef @.str.124)
  br label %47

33:                                               ; preds = %1
  call void @_ZN4llvm9StringRefC2EPKc(ptr noundef nonnull align 8 dereferenceable(16) %2, ptr noundef @.str.125)
  br label %47

34:                                               ; preds = %1
  call void @_ZN4llvm9StringRefC2EPKc(ptr noundef nonnull align 8 dereferenceable(16) %2, ptr noundef @.str.126)
  br label %47

35:                                               ; preds = %1
  call void @_ZN4llvm9StringRefC2EPKc(ptr noundef nonnull align 8 dereferenceable(16) %2, ptr noundef @.str.127)
  br label %47

36:                                               ; preds = %1
  call void @_ZN4llvm9StringRefC2EPKc(ptr noundef nonnull align 8 dereferenceable(16) %2, ptr noundef @.str.128)
  br label %47

37:                                               ; preds = %1
  call void @_ZN4llvm9StringRefC2EPKc(ptr noundef nonnull align 8 dereferenceable(16) %2, ptr noundef @.str.129)
  br label %47

38:                                               ; preds = %1
  call void @_ZN4llvm9StringRefC2EPKc(ptr noundef nonnull align 8 dereferenceable(16) %2, ptr noundef @.str.130)
  br label %47

39:                                               ; preds = %1
  call void @_ZN4llvm9StringRefC2EPKc(ptr noundef nonnull align 8 dereferenceable(16) %2, ptr noundef @.str.131)
  br label %47

40:                                               ; preds = %1
  call void @_ZN4llvm9StringRefC2EPKc(ptr noundef nonnull align 8 dereferenceable(16) %2, ptr noundef @.str.132)
  br label %47

41:                                               ; preds = %1
  call void @_ZN4llvm9StringRefC2EPKc(ptr noundef nonnull align 8 dereferenceable(16) %2, ptr noundef @.str.133)
  br label %47

42:                                               ; preds = %1
  call void @_ZN4llvm9StringRefC2EPKc(ptr noundef nonnull align 8 dereferenceable(16) %2, ptr noundef @.str.134)
  br label %47

43:                                               ; preds = %1
  call void @_ZN4llvm9StringRefC2EPKc(ptr noundef nonnull align 8 dereferenceable(16) %2, ptr noundef @.str.135)
  br label %47

44:                                               ; preds = %1
  call void @_ZN4llvm9StringRefC2EPKc(ptr noundef nonnull align 8 dereferenceable(16) %2, ptr noundef @.str.136)
  br label %47

45:                                               ; preds = %1
  call void @_ZN4llvm9StringRefC2EPKc(ptr noundef nonnull align 8 dereferenceable(16) %2, ptr noundef @.str.137)
  br label %47

46:                                               ; preds = %1
  unreachable

47:                                               ; preds = %45, %44, %43, %42, %41, %40, %39, %38, %37, %36, %35, %34, %33, %32, %31, %30, %29, %28, %27, %26, %25, %24, %23, %22, %21, %20, %19, %18, %17, %16, %15, %14, %13, %12, %11, %10, %9, %8, %7, %6, %5
  %48 = load { ptr, i64 }, ptr %2, align 8
  ret { ptr, i64 } %48
}